; Function Attrs: nounwind uwtable
define dso_local range(i32 0, 101) i32 @curlx_dyn_add(ptr noundef captures(none) %0, ptr noundef readonly captures(none) %1) local_unnamed_addr #6 {
  %3 = tail call i64 @strlen(ptr noundef nonnull dereferenceable(1) %1) #18
  %4 = getelementptr inbounds nuw i8, ptr %0, i64 8
  %5 = load i64, ptr %4, align 8, !tbaa !12
  %6 = getelementptr inbounds nuw i8, ptr %0, i64 16
  %7 = add i64 %5, %3
  %8 = add i64 %7, 1
  %9 = getelementptr inbounds nuw i8, ptr %0, i64 24
  %10 = load i64, ptr %9, align 8, !tbaa !4
  %11 = icmp ugt i64 %8, %10
  br i1 %11, label %12, label %14

12:                                               ; preds = %2
  %13 = load ptr, ptr %0, align 8, !tbaa !11
  tail call void @free(ptr noundef %13) #16
  tail call void @llvm.memset.p0.i64(ptr noundef nonnull align 8 dereferenceable(24) %0, i8 0, i64 24, i1 false)
  br label %dyn_nappend.exit

14:                                               ; preds = %2
  %15 = load i64, ptr %6, align 8, !tbaa !14
  %.not.i = icmp eq i64 %15, 0
  br i1 %.not.i, label %16, label %.preheader.i

16:                                               ; preds = %14
  %17 = icmp ult i64 %10, 32
  br i1 %17, label %22, label %18

18:                                               ; preds = %16
  %..i = tail call i64 @llvm.umax.i64(i64 %8, i64 32)
  br label %22

.preheader.i:                                     ; preds = %14, %.preheader.i
  %.040.i = phi i64 [ %20, %.preheader.i ], [ %15, %14 ]
  %19 = icmp ult i64 %.040.i, %8
  %20 = shl i64 %.040.i, 1
  br i1 %19, label %.preheader.i, label %21, !llvm.loop !15

21:                                               ; preds = %.preheader.i
  %spec.select.i = tail call i64 @llvm.umin.i64(i64 %.040.i, i64 %10)
  br label %22

22:                                               ; preds = %21, %18, %16
  %.141.i = phi i64 [ %10, %16 ], [ %..i, %18 ], [ %spec.select.i, %21 ]
  %.not48.i = icmp eq i64 %.141.i, %15
  %.pre51.pre.i = load ptr, ptr %0, align 8, !tbaa !11
  br i1 %.not48.i, label %27, label %23

23:                                               ; preds = %22
  %24 = tail call ptr @realloc(ptr noundef %.pre51.pre.i, i64 noundef %.141.i) #17
  %.not49.not.i = icmp eq ptr %24, null
  br i1 %.not49.not.i, label %.thread.i, label %26

.thread.i:                                        ; preds = %23
  %25 = load ptr, ptr %0, align 8, !tbaa !11
  tail call void @free(ptr noundef %25) #16
  tail call void @llvm.memset.p0.i64(ptr noundef nonnull align 8 dereferenceable(24) %0, i8 0, i64 24, i1 false)
  br label %dyn_nappend.exit

26:                                               ; preds = %23
  store ptr %24, ptr %0, align 8, !tbaa !11
  store i64 %.141.i, ptr %6, align 8, !tbaa !14
  br label %27

27:                                               ; preds = %26, %22
  %.pre51.i = phi ptr [ %24, %26 ], [ %.pre51.pre.i, %22 ]
  %.not50.i = icmp eq i64 %3, 0
  br i1 %.not50.i, label %30, label %28

28:                                               ; preds = %27
  %29 = getelementptr inbounds nuw i8, ptr %.pre51.i, i64 %5
  tail call void @llvm.memcpy.p0.p0.i64(ptr align 1 %29, ptr nonnull readonly align 1 %1, i64 %3, i1 false)
  %.pre.i = load ptr, ptr %0, align 8, !tbaa !11
  br label %30

30:                                               ; preds = %28, %27
  %31 = phi ptr [ %.pre.i, %28 ], [ %.pre51.i, %27 ]
  store i64 %7, ptr %4, align 8, !tbaa !12
  %32 = getelementptr inbounds nuw i8, ptr %31, i64 %7
  store i8 0, ptr %32, align 1, !tbaa !13
  br label %dyn_nappend.exit

dyn_nappend.exit:                                 ; preds = %12, %.thread.i, %30
  %.0.i = phi i32 [ 100, %12 ], [ 0, %30 ], [ 27, %.thread.i ]
  ret i32 %.0.i
}